; Function Attrs: nounwind uwtable
define ptr @l_Array_foldlMUnsafe_fold___at_Lean_Server_FileWorker_initializeWorker___spec__5___at_Lean_Server_FileWorker_initializeWorker___spec__6(ptr noundef readonly captures(none) %0, i64 noundef %1, i64 noundef %2, ptr noundef %3) local_unnamed_addr #0 {
  %.not40 = icmp eq i64 %1, %2
  br i1 %.not40, label %._crit_edge, label %.lr.ph

.lr.ph:                                           ; preds = %4
  %5 = getelementptr inbounds nuw i8, ptr %0, i64 24
  br label %6

6:                                                ; preds = %.lr.ph, %l_Lean_RBNode_insert___at_Lean_Server_FileWorker_WorkerContext_modifyGetPartialHandler___spec__3.exit
  %.02042 = phi i64 [ %1, %.lr.ph ], [ %44, %l_Lean_RBNode_insert___at_Lean_Server_FileWorker_WorkerContext_modifyGetPartialHandler___spec__3.exit ]
  %.02241 = phi ptr [ %3, %.lr.ph ], [ %.123, %l_Lean_RBNode_insert___at_Lean_Server_FileWorker_WorkerContext_modifyGetPartialHandler___spec__3.exit ]
  %7 = getelementptr inbounds nuw [0 x ptr], ptr %5, i64 0, i64 %.02042
  %8 = load ptr, ptr %7, align 8, !tbaa !4
  %9 = ptrtoint ptr %8 to i64
  %10 = and i64 %9, 1
  %.not.i25 = icmp eq i64 %10, 0
  br i1 %.not.i25, label %11, label %lean_array_uget.exit

11:                                               ; preds = %6
  %.val.i.i = load i32, ptr %8, align 4, !tbaa !10
  %12 = icmp sgt i32 %.val.i.i, 0
  br i1 %12, label %13, label %15, !prof !13

13:                                               ; preds = %11
  %14 = add nuw i32 %.val.i.i, 1
  store i32 %14, ptr %8, align 4, !tbaa !10
  br label %lean_array_uget.exit

15:                                               ; preds = %11
  %.not.i.i = icmp eq i32 %.val.i.i, 0
  br i1 %.not.i.i, label %lean_array_uget.exit, label %16

16:                                               ; preds = %15
  tail call void @lean_inc_ref_cold(ptr noundef nonnull %8) #7
  br label %lean_array_uget.exit

lean_array_uget.exit:                             ; preds = %6, %13, %15, %16
  %17 = getelementptr inbounds nuw i8, ptr %8, i64 8
  %18 = load ptr, ptr %17, align 8, !tbaa !4
  %19 = ptrtoint ptr %18 to i64
  %20 = and i64 %19, 1
  %.not37 = icmp eq i64 %20, 0
  br i1 %.not37, label %21, label %lean_inc.exit24

21:                                               ; preds = %lean_array_uget.exit
  %.val.i = load i32, ptr %18, align 4, !tbaa !10
  %22 = icmp sgt i32 %.val.i, 0
  br i1 %22, label %23, label %25, !prof !13

23:                                               ; preds = %21
  %24 = add nuw i32 %.val.i, 1
  store i32 %24, ptr %18, align 4, !tbaa !10
  br label %lean_inc.exit24

25:                                               ; preds = %21
  %.not.i26 = icmp eq i32 %.val.i, 0
  br i1 %.not.i26, label %lean_inc.exit24, label %26

26:                                               ; preds = %25
  tail call void @lean_inc_ref_cold(ptr noundef nonnull %18) #7
  br label %lean_inc.exit24

lean_inc.exit24:                                  ; preds = %26, %25, %23, %lean_array_uget.exit
  %27 = getelementptr inbounds nuw i8, ptr %8, i64 16
  %28 = load ptr, ptr %27, align 8, !tbaa !4
  %29 = ptrtoint ptr %28 to i64
  %30 = and i64 %29, 1
  %.not38 = icmp eq i64 %30, 0
  br i1 %.not38, label %31, label %lean_inc.exit

31:                                               ; preds = %lean_inc.exit24
  %.val.i27 = load i32, ptr %28, align 4, !tbaa !10
  %32 = icmp sgt i32 %.val.i27, 0
  br i1 %32, label %33, label %35, !prof !13

33:                                               ; preds = %31
  %34 = add nuw i32 %.val.i27, 1
  store i32 %34, ptr %28, align 4, !tbaa !10
  br label %lean_inc.exit

35:                                               ; preds = %31
  %.not.i28 = icmp eq i32 %.val.i27, 0
  br i1 %.not.i28, label %lean_inc.exit, label %36

36:                                               ; preds = %35
  tail call void @lean_inc_ref_cold(ptr noundef nonnull %28) #7
  br label %lean_inc.exit

lean_inc.exit:                                    ; preds = %36, %35, %33, %lean_inc.exit24
  br i1 %.not.i25, label %37, label %lean_dec.exit

37:                                               ; preds = %lean_inc.exit
  %38 = load i32, ptr %8, align 4, !tbaa !10
  %39 = icmp sgt i32 %38, 1
  br i1 %39, label %40, label %42, !prof !13

40:                                               ; preds = %37
  %41 = add nsw i32 %38, -1
  store i32 %41, ptr %8, align 4, !tbaa !10
  br label %lean_dec.exit

42:                                               ; preds = %37
  %.not.i = icmp eq i32 %38, 0
  br i1 %.not.i, label %lean_dec.exit, label %43

43:                                               ; preds = %42
  tail call void @lean_dec_ref_cold(ptr noundef nonnull %8) #7
  br label %lean_dec.exit

lean_dec.exit:                                    ; preds = %43, %42, %40, %lean_inc.exit
  %44 = add i64 %.02042, 1
  %45 = tail call zeroext i8 @l_Lean_RBNode_isRed___rarg(ptr noundef %.02241) #7
  %46 = icmp eq i8 %45, 0
  %47 = tail call ptr @l_Lean_RBNode_ins___at_Lean_Server_FileWorker_WorkerContext_modifyGetPartialHandler___spec__4(ptr noundef %.02241, ptr noundef %18, ptr noundef %28)
  br i1 %46, label %l_Lean_RBNode_insert___at_Lean_Server_FileWorker_WorkerContext_modifyGetPartialHandler___spec__3.exit, label %48

48:                                               ; preds = %lean_dec.exit
  %49 = tail call ptr @l_Lean_RBNode_setBlack___rarg(ptr noundef %47) #7
  br label %l_Lean_RBNode_insert___at_Lean_Server_FileWorker_WorkerContext_modifyGetPartialHandler___spec__3.exit

l_Lean_RBNode_insert___at_Lean_Server_FileWorker_WorkerContext_modifyGetPartialHandler___spec__3.exit: ; preds = %48, %lean_dec.exit
  %.123 = phi ptr [ %49, %48 ], [ %47, %lean_dec.exit ]
  %.not = icmp eq i64 %44, %2
  br i1 %.not, label %._crit_edge, label %6

._crit_edge:                                      ; preds = %l_Lean_RBNode_insert___at_Lean_Server_FileWorker_WorkerContext_modifyGetPartialHandler___spec__3.exit, %4
  %.022.lcssa = phi ptr [ %3, %4 ], [ %.123, %l_Lean_RBNode_insert___at_Lean_Server_FileWorker_WorkerContext_modifyGetPartialHandler___spec__3.exit ]
  ret ptr %.022.lcssa
}